; Function Attrs: mustprogress uwtable
define void @_Z28dd_clear_local_vsite_indicesP12gmx_domdec_t(ptr noundef readonly captures(none) %0) local_unnamed_addr #0 {
  %2 = getelementptr inbounds nuw i8, ptr %0, i64 824
  %3 = load ptr, ptr %2, align 8, !tbaa !4
  %.not = icmp eq ptr %3, null
  br i1 %.not, label %7, label %4

4:                                                ; preds = %1
  %5 = getelementptr inbounds nuw i8, ptr %0, i64 816
  %6 = load ptr, ptr %5, align 8, !tbaa !32
  tail call void @_ZN3gmx9HashedMapIiE23clearAndResizeHashTableEv(ptr noundef nonnull align 8 dereferenceable(40) %6)
  br label %7

7:                                                ; preds = %4, %1
  ret void
}